(lp0
(lp1
S'58.10'
p2
aS'11.08'
p3
aS'7.88'
p4
aS'6.78'
p5
aS'5.77'
p6
aS'4.97'
p7
aS'4.95'
p8
aS'4.50'
p9
aS'4.31'
p10
aS'4.20'
p11
aa(lp12
S'58.10'
p13
aS'11.08'
p14
aS'7.88'
p15
aS'6.78'
p16
aS'5.77'
p17
aS'4.97'
p18
aS'4.95'
p19
aS'4.50'
p20
aS'4.31'
p21
aS'4.20'
p22
aa(lp23
S'58.10'
p24
aS'11.08'
p25
aS'7.88'
p26
aS'6.78'
p27
aS'5.77'
p28
aS'4.97'
p29
aS'4.95'
p30
aS'4.50'
p31
aS'4.31'
p32
aS'4.20'
p33
aa(lp34
S'6.38'
p35
aS'4.40'
p36
aS'1.61'
p37
aS'1.00'
p38
aa(lp39
S'1.77'
p40
aS'1.71'
p41
aS'1.47'
p42
aS'1.43'
p43
aS'1.38'
p44
aS'1.36'
p45
aS'1.27'
p46
aS'1.25'
p47
aS'1.20'
p48
aS'1.17'
p49
aa(lp50
S'39.33'
p51
aS'5.06'
p52
aS'1.76'
p53
aS'1.59'
p54
aS'1.47'
p55
aS'1.35'
p56
aS'1.34'
p57
aS'1.28'
p58
aS'1.22'
p59
aS'1.21'
p60
aa(lp61
S'58.10'
p62
aS'11.08'
p63
aS'7.88'
p64
aS'6.78'
p65
aS'5.77'
p66
aS'4.97'
p67
aS'4.95'
p68
aS'4.50'
p69
aS'4.31'
p70
aS'4.20'
p71
aa(lp72
S'58.10'
p73
aS'11.08'
p74
aS'7.88'
p75
aS'6.78'
p76
aS'5.77'
p77
aS'4.97'
p78
aS'4.95'
p79
aS'4.50'
p80
aS'4.31'
p81
aS'4.20'
p82
aa(lp83
S'58.10'
p84
aS'11.08'
p85
aS'7.88'
p86
aS'6.78'
p87
aS'5.77'
p88
aS'4.97'
p89
aS'4.95'
p90
aS'4.50'
p91
aS'4.31'
p92
aS'4.20'
p93
aa(lp94
S'39.33'
p95
aS'5.06'
p96
aS'1.76'
p97
aS'1.59'
p98
aS'1.47'
p99
aS'1.35'
p100
aS'1.34'
p101
aS'1.28'
p102
aS'1.22'
p103
aS'1.21'
p104
aa(lp105
S'58.10'
p106
aS'11.08'
p107
aS'7.88'
p108
aS'6.78'
p109
aS'5.77'
p110
aS'4.97'
p111
aS'4.95'
p112
aS'4.50'
p113
aS'4.31'
p114
aS'4.20'
p115
aa(lp116
S'58.10'
p117
aS'11.08'
p118
aS'7.88'
p119
aS'6.78'
p120
aS'5.77'
p121
aS'4.97'
p122
aS'4.95'
p123
aS'4.50'
p124
aS'4.31'
p125
aS'4.20'
p126
aa(lp127
S'58.10'
p128
aS'11.08'
p129
aS'7.88'
p130
aS'6.78'
p131
aS'5.77'
p132
aS'4.97'
p133
aS'4.95'
p134
aS'4.50'
p135
aS'4.31'
p136
aS'4.20'
p137
aa(lp138
S'39.33'
p139
aS'5.06'
p140
aS'1.76'
p141
aS'1.59'
p142
aS'1.47'
p143
aS'1.35'
p144
aS'1.34'
p145
aS'1.28'
p146
aS'1.22'
p147
aS'1.21'
p148
aa(lp149
S'58.10'
p150
aS'11.08'
p151
aS'7.88'
p152
aS'6.78'
p153
aS'5.77'
p154
aS'4.97'
p155
aS'4.95'
p156
aS'4.50'
p157
aS'4.31'
p158
aS'4.20'
p159
aa(lp160
S'58.10'
p161
aS'11.08'
p162
aS'7.88'
p163
aS'6.78'
p164
aS'5.77'
p165
aS'4.97'
p166
aS'4.95'
p167
aS'4.50'
p168
aS'4.31'
p169
aS'4.20'
p170
aa(lp171
S'1.77'
p172
aS'1.02'
p173
aa(lp174
S'23.91'
p175
aS'11.11'
p176
aS'4.25'
p177
aS'3.80'
p178
aS'2.97'
p179
aS'2.88'
p180
aS'2.75'
p181
aS'2.31'
p182
aS'2.24'
p183
aS'2.12'
p184
aa(lp185
S'23.91'
p186
aS'11.11'
p187
aS'4.25'
p188
aS'3.80'
p189
aS'2.97'
p190
aS'2.88'
p191
aS'2.75'
p192
aS'2.31'
p193
aS'2.24'
p194
aS'2.12'
p195
aa(lp196
S'58.10'
p197
aS'11.08'
p198
aS'7.88'
p199
aS'6.78'
p200
aS'5.77'
p201
aS'4.97'
p202
aS'4.95'
p203
aS'4.50'
p204
aS'4.31'
p205
aS'4.20'
p206
aa(lp207
S'58.10'
p208
aS'11.08'
p209
aS'7.88'
p210
aS'6.78'
p211
aS'5.77'
p212
aS'4.97'
p213
aS'4.95'
p214
aS'4.50'
p215
aS'4.31'
p216
aS'4.20'
p217
aa(lp218
S'58.10'
p219
aS'11.08'
p220
aS'7.88'
p221
aS'6.78'
p222
aS'5.77'
p223
aS'4.97'
p224
aS'4.95'
p225
aS'4.50'
p226
aS'4.31'
p227
aS'4.20'
p228
aa(lp229
S'39.33'
p230
aS'5.06'
p231
aS'1.76'
p232
aS'1.59'
p233
aS'1.47'
p234
aS'1.35'
p235
aS'1.34'
p236
aS'1.28'
p237
aS'1.22'
p238
aS'1.21'
p239
aa(lp240
S'58.10'
p241
aS'11.08'
p242
aS'7.88'
p243
aS'6.78'
p244
aS'5.77'
p245
aS'4.97'
p246
aS'4.95'
p247
aS'4.50'
p248
aS'4.31'
p249
aS'4.20'
p250
aa(lp251
S'58.10'
p252
aS'11.08'
p253
aS'7.88'
p254
aS'6.78'
p255
aS'5.77'
p256
aS'4.97'
p257
aS'4.95'
p258
aS'4.50'
p259
aS'4.31'
p260
aS'4.20'
p261
aa(lp262
S'58.10'
p263
aS'11.08'
p264
aS'7.88'
p265
aS'6.78'
p266
aS'5.77'
p267
aS'4.97'
p268
aS'4.95'
p269
aS'4.50'
p270
aS'4.31'
p271
aS'4.20'
p272
aa(lp273
S'39.33'
p274
aS'5.06'
p275
aS'1.76'
p276
aS'1.59'
p277
aS'1.47'
p278
aS'1.35'
p279
aS'1.34'
p280
aS'1.28'
p281
aS'1.22'
p282
aS'1.21'
p283
aa(lp284
S'58.10'
p285
aS'11.08'
p286
aS'7.88'
p287
aS'6.78'
p288
aS'5.77'
p289
aS'4.97'
p290
aS'4.95'
p291
aS'4.50'
p292
aS'4.31'
p293
aS'4.20'
p294
aa(lp295
S'58.10'
p296
aS'11.08'
p297
aS'7.88'
p298
aS'6.78'
p299
aS'5.77'
p300
aS'4.97'
p301
aS'4.95'
p302
aS'4.50'
p303
aS'4.31'
p304
aS'4.20'
p305
aa(lp306
S'58.10'
p307
aS'11.08'
p308
aS'7.88'
p309
aS'6.78'
p310
aS'5.77'
p311
aS'4.97'
p312
aS'4.95'
p313
aS'4.50'
p314
aS'4.31'
p315
aS'4.20'
p316
aa(lp317
S'58.10'
p318
aS'11.08'
p319
aS'7.88'
p320
aS'6.78'
p321
aS'5.77'
p322
aS'4.97'
p323
aS'4.95'
p324
aS'4.50'
p325
aS'4.31'
p326
aS'4.20'
p327
aa(lp328
S'58.10'
p329
aS'11.08'
p330
aS'7.88'
p331
aS'6.78'
p332
aS'5.77'
p333
aS'4.97'
p334
aS'4.95'
p335
aS'4.50'
p336
aS'4.31'
p337
aS'4.20'
p338
aa(lp339
S'58.10'
p340
aS'11.08'
p341
aS'7.88'
p342
aS'6.78'
p343
aS'5.77'
p344
aS'4.97'
p345
aS'4.95'
p346
aS'4.50'
p347
aS'4.31'
p348
aS'4.20'
p349
aa(lp350
S'1.42'
p351
aS'1.35'
p352
aS'1.20'
p353
aS'1.08'
p354
aS'1.05'
p355
aS'1.04'
p356
aS'1.00'
p357
aa(lp358
S'58.10'
p359
aS'11.08'
p360
aS'7.88'
p361
aS'6.78'
p362
aS'5.77'
p363
aS'4.97'
p364
aS'4.95'
p365
aS'4.50'
p366
aS'4.31'
p367
aS'4.20'
p368
aa(lp369
S'39.33'
p370
aS'5.06'
p371
aS'1.76'
p372
aS'1.59'
p373
aS'1.47'
p374
aS'1.35'
p375
aS'1.34'
p376
aS'1.28'
p377
aS'1.22'
p378
aS'1.21'
p379
aa(lp380
S'58.10'
p381
aS'11.08'
p382
aS'7.88'
p383
aS'6.78'
p384
aS'5.77'
p385
aS'4.97'
p386
aS'4.95'
p387
aS'4.50'
p388
aS'4.31'
p389
aS'4.20'
p390
aa(lp391
S'1.32'
p392
aS'1.19'
p393
aS'1.17'
p394
aa(lp395
S'58.10'
p396
aS'11.08'
p397
aS'7.88'
p398
aS'6.78'
p399
aS'5.77'
p400
aS'4.97'
p401
aS'4.95'
p402
aS'4.50'
p403
aS'4.31'
p404
aS'4.20'
p405
aa(lp406
S'39.33'
p407
aS'5.06'
p408
aS'1.76'
p409
aS'1.59'
p410
aS'1.47'
p411
aS'1.35'
p412
aS'1.34'
p413
aS'1.28'
p414
aS'1.22'
p415
aS'1.21'
p416
aa(lp417
S'58.10'
p418
aS'11.08'
p419
aS'7.88'
p420
aS'6.78'
p421
aS'5.77'
p422
aS'4.97'
p423
aS'4.95'
p424
aS'4.50'
p425
aS'4.31'
p426
aS'4.20'
p427
aa(lp428
S'58.10'
p429
aS'11.08'
p430
aS'7.88'
p431
aS'6.78'
p432
aS'5.77'
p433
aS'4.97'
p434
aS'4.95'
p435
aS'4.50'
p436
aS'4.31'
p437
aS'4.20'
p438
aa(lp439
S'58.10'
p440
aS'11.08'
p441
aS'7.88'
p442
aS'6.78'
p443
aS'5.77'
p444
aS'4.97'
p445
aS'4.95'
p446
aS'4.50'
p447
aS'4.31'
p448
aS'4.20'
p449
aa(lp450
S'1.64'
p451
aS'1.37'
p452
aS'1.25'
p453
aS'1.13'
p454
aa(lp455
S'39.33'
p456
aS'5.06'
p457
aS'1.76'
p458
aS'1.59'
p459
aS'1.47'
p460
aS'1.35'
p461
aS'1.34'
p462
aS'1.28'
p463
aS'1.22'
p464
aS'1.21'
p465
aa(lp466
S'58.10'
p467
aS'11.08'
p468
aS'7.88'
p469
aS'6.78'
p470
aS'5.77'
p471
aS'4.97'
p472
aS'4.95'
p473
aS'4.50'
p474
aS'4.31'
p475
aS'4.20'
p476
aa(lp477
S'3.84'
p478
aS'3.80'
p479
aS'3.74'
p480
aS'3.46'
p481
aS'3.43'
p482
aS'3.42'
p483
aS'3.42'
p484
aS'2.45'
p485
aS'2.45'
p486
aS'2.35'
p487
aa(lp488
S'58.10'
p489
aS'11.08'
p490
aS'7.88'
p491
aS'6.78'
p492
aS'5.77'
p493
aS'4.97'
p494
aS'4.95'
p495
aS'4.50'
p496
aS'4.31'
p497
aS'4.20'
p498
aa(lp499
S'58.10'
p500
aS'11.08'
p501
aS'7.88'
p502
aS'6.78'
p503
aS'5.77'
p504
aS'4.97'
p505
aS'4.95'
p506
aS'4.50'
p507
aS'4.31'
p508
aS'4.20'
p509
aa(lp510
S'58.10'
p511
aS'11.08'
p512
aS'7.88'
p513
aS'6.78'
p514
aS'5.77'
p515
aS'4.97'
p516
aS'4.95'
p517
aS'4.50'
p518
aS'4.31'
p519
aS'4.20'
p520
aa(lp521
S'4.87'
p522
aS'4.12'
p523
aS'3.26'
p524
aS'2.72'
p525
aS'2.66'
p526
aS'2.54'
p527
aS'2.50'
p528
aS'2.30'
p529
aS'2.25'
p530
aS'2.23'
p531
aa(lp532
S'58.10'
p533
aS'11.08'
p534
aS'7.88'
p535
aS'6.78'
p536
aS'5.77'
p537
aS'4.97'
p538
aS'4.95'
p539
aS'4.50'
p540
aS'4.31'
p541
aS'4.20'
p542
aa.